target datalayout = "e-m:e-p270:32:32-p271:32:32-p272:64:64-i64:64-i128:128-f80:128-n8:16:32:64-S128"
target triple = "x86_64-pc-linux-gnu"

%"class.std::__cxx11::basic_string" = type { %"struct.std::__cxx11::basic_string<char>::_Alloc_hider", i64, %union.anon }
%"struct.std::__cxx11::basic_string<char>::_Alloc_hider" = type { ptr }
%union.anon = type { i64, [8 x i8] }
%"class.rocksdb::Slice" = type { ptr, i64 }
%"class.rocksdb::VersionEdit" = type { i32, %"class.std::__cxx11::basic_string", %"class.std::__cxx11::basic_string", i64, i64, i64, i32, i64, i64, i8, i8, i8, i8, i8, i8, i8, i8, i8, %"class.std::vector.5", %"class.std::set", %"class.std::vector.13", %"class.std::vector.18", %"class.std::vector.23", %"class.std::vector.28", %"class.rocksdb::WalDeletion", i32, i8, i8, %"class.std::__cxx11::basic_string", i32, i8, i8, %"class.std::__cxx11::basic_string", i8, %"class.rocksdb::autovector" }
%"class.std::vector.5" = type { %"struct.std::_Vector_base.6" }
%"struct.std::_Vector_base.6" = type { %"struct.std::_Vector_base<std::pair<int, rocksdb::InternalKey>, std::allocator<std::pair<int, rocksdb::InternalKey>>>::_Vector_impl" }
%"struct.std::_Vector_base<std::pair<int, rocksdb::InternalKey>, std::allocator<std::pair<int, rocksdb::InternalKey>>>::_Vector_impl" = type { %"struct.std::_Vector_base<std::pair<int, rocksdb::InternalKey>, std::allocator<std::pair<int, rocksdb::InternalKey>>>::_Vector_impl_data" }
%"struct.std::_Vector_base<std::pair<int, rocksdb::InternalKey>, std::allocator<std::pair<int, rocksdb::InternalKey>>>::_Vector_impl_data" = type { ptr, ptr, ptr }
%"class.std::set" = type { %"class.std::_Rb_tree" }
%"class.std::_Rb_tree" = type { %"struct.std::_Rb_tree<std::pair<int, unsigned long>, std::pair<int, unsigned long>, std::_Identity<std::pair<int, unsigned long>>, std::less<std::pair<int, unsigned long>>>::_Rb_tree_impl" }
%"struct.std::_Rb_tree<std::pair<int, unsigned long>, std::pair<int, unsigned long>, std::_Identity<std::pair<int, unsigned long>>, std::less<std::pair<int, unsigned long>>>::_Rb_tree_impl" = type { [8 x i8], %"struct.std::_Rb_tree_header" }
%"struct.std::_Rb_tree_header" = type { %"struct.std::_Rb_tree_node_base", i64 }
%"struct.std::_Rb_tree_node_base" = type { i32, ptr, ptr, ptr }
%"class.std::vector.13" = type { %"struct.std::_Vector_base.14" }
%"struct.std::_Vector_base.14" = type { %"struct.std::_Vector_base<std::pair<int, rocksdb::FileMetaData>, std::allocator<std::pair<int, rocksdb::FileMetaData>>>::_Vector_impl" }
%"struct.std::_Vector_base<std::pair<int, rocksdb::FileMetaData>, std::allocator<std::pair<int, rocksdb::FileMetaData>>>::_Vector_impl" = type { %"struct.std::_Vector_base<std::pair<int, rocksdb::FileMetaData>, std::allocator<std::pair<int, rocksdb::FileMetaData>>>::_Vector_impl_data" }
%"struct.std::_Vector_base<std::pair<int, rocksdb::FileMetaData>, std::allocator<std::pair<int, rocksdb::FileMetaData>>>::_Vector_impl_data" = type { ptr, ptr, ptr }
%"class.std::vector.18" = type { %"struct.std::_Vector_base.19" }
%"struct.std::_Vector_base.19" = type { %"struct.std::_Vector_base<rocksdb::BlobFileAddition, std::allocator<rocksdb::BlobFileAddition>>::_Vector_impl" }
%"struct.std::_Vector_base<rocksdb::BlobFileAddition, std::allocator<rocksdb::BlobFileAddition>>::_Vector_impl" = type { %"struct.std::_Vector_base<rocksdb::BlobFileAddition, std::allocator<rocksdb::BlobFileAddition>>::_Vector_impl_data" }
%"struct.std::_Vector_base<rocksdb::BlobFileAddition, std::allocator<rocksdb::BlobFileAddition>>::_Vector_impl_data" = type { ptr, ptr, ptr }
%"class.std::vector.23" = type { %"struct.std::_Vector_base.24" }
%"struct.std::_Vector_base.24" = type { %"struct.std::_Vector_base<rocksdb::BlobFileGarbage, std::allocator<rocksdb::BlobFileGarbage>>::_Vector_impl" }
%"struct.std::_Vector_base<rocksdb::BlobFileGarbage, std::allocator<rocksdb::BlobFileGarbage>>::_Vector_impl" = type { %"struct.std::_Vector_base<rocksdb::BlobFileGarbage, std::allocator<rocksdb::BlobFileGarbage>>::_Vector_impl_data" }
%"struct.std::_Vector_base<rocksdb::BlobFileGarbage, std::allocator<rocksdb::BlobFileGarbage>>::_Vector_impl_data" = type { ptr, ptr, ptr }
%"class.std::vector.28" = type { %"struct.std::_Vector_base.29" }
%"struct.std::_Vector_base.29" = type { %"struct.std::_Vector_base<rocksdb::WalAddition, std::allocator<rocksdb::WalAddition>>::_Vector_impl" }
%"struct.std::_Vector_base<rocksdb::WalAddition, std::allocator<rocksdb::WalAddition>>::_Vector_impl" = type { %"struct.std::_Vector_base<rocksdb::WalAddition, std::allocator<rocksdb::WalAddition>>::_Vector_impl_data" }
%"struct.std::_Vector_base<rocksdb::WalAddition, std::allocator<rocksdb::WalAddition>>::_Vector_impl_data" = type { ptr, ptr, ptr }
%"class.rocksdb::WalDeletion" = type { i64 }
%"class.rocksdb::autovector" = type { i64, [64 x i8], ptr, %"class.std::vector.33" }
%"class.std::vector.33" = type { %"struct.std::_Vector_base.34" }
%"struct.std::_Vector_base.34" = type { %"struct.std::_Vector_base<unsigned long, std::allocator<unsigned long>>::_Vector_impl" }
%"struct.std::_Vector_base<unsigned long, std::allocator<unsigned long>>::_Vector_impl" = type { %"struct.std::_Vector_base<unsigned long, std::allocator<unsigned long>>::_Vector_impl_data" }
%"struct.std::_Vector_base<unsigned long, std::allocator<unsigned long>>::_Vector_impl_data" = type { ptr, ptr, ptr }

; Function Attrs: mustprogress nounwind uwtable
define linkonce_odr void @_ZN7rocksdb5SliceC2EPKcm(ptr noundef nonnull align 8 dereferenceable(16) %0, ptr noundef %1, i64 noundef %2) unnamed_addr #3 comdat align 2 {
  %4 = alloca ptr, align 8
  %5 = alloca ptr, align 8
  %6 = alloca i64, align 8
  store ptr %0, ptr %4, align 8, !tbaa !13
  store ptr %1, ptr %5, align 8, !tbaa !10
  store i64 %2, ptr %6, align 8, !tbaa !4
  %7 = load ptr, ptr %4, align 8
  %8 = getelementptr inbounds nuw %"class.rocksdb::Slice", ptr %7, i32 0, i32 0
  %9 = load ptr, ptr %5, align 8, !tbaa !10
  store ptr %9, ptr %8, align 8, !tbaa !15
  %10 = getelementptr inbounds nuw %"class.rocksdb::Slice", ptr %7, i32 0, i32 1
  %11 = load i64, ptr %6, align 8, !tbaa !4
  store i64 %11, ptr %10, align 8, !tbaa !17
  ret void
}

; Function Attrs: inlinehint mustprogress uwtable
define linkonce_odr noundef ptr @_ZN7rocksdb14GetVarint32PtrEPKcS1_Pj(ptr noundef %0, ptr noundef %1, ptr noundef %2) #7 comdat {
  %4 = alloca ptr, align 8
  %5 = alloca ptr, align 8
  %6 = alloca ptr, align 8
  %7 = alloca ptr, align 8
  %8 = alloca i32, align 4
  %9 = alloca i32, align 4
  store ptr %0, ptr %5, align 8, !tbaa !10
  store ptr %1, ptr %6, align 8, !tbaa !10
  store ptr %2, ptr %7, align 8, !tbaa !245
  %10 = load ptr, ptr %5, align 8, !tbaa !10
  %11 = load ptr, ptr %6, align 8, !tbaa !10
  %12 = icmp ult ptr %10, %11
  br i1 %12, label %13, label %29

13:                                               ; preds = %3
  call void @llvm.lifetime.start.p0(i64 4, ptr %8) #4
  %14 = load ptr, ptr %5, align 8, !tbaa !10
  %15 = load i8, ptr %14, align 1, !tbaa !80
  %16 = zext i8 %15 to i32
  store i32 %16, ptr %8, align 4, !tbaa !204
  %17 = load i32, ptr %8, align 4, !tbaa !204
  %18 = and i32 %17, 128
  %19 = icmp eq i32 %18, 0
  br i1 %19, label %20, label %25

20:                                               ; preds = %13
  %21 = load i32, ptr %8, align 4, !tbaa !204
  %22 = load ptr, ptr %7, align 8, !tbaa !245
  store i32 %21, ptr %22, align 4, !tbaa !204
  %23 = load ptr, ptr %5, align 8, !tbaa !10
  %24 = getelementptr inbounds i8, ptr %23, i64 1
  store ptr %24, ptr %4, align 8
  store i32 1, ptr %9, align 4
  br label %26

25:                                               ; preds = %13
  store i32 0, ptr %9, align 4
  br label %26

26:                                               ; preds = %25, %20
  call void @llvm.lifetime.end.p0(i64 4, ptr %8) #4
  %27 = load i32, ptr %9, align 4
  switch i32 %27, label %36 [
    i32 0, label %28
    i32 1, label %34
  ]

28:                                               ; preds = %26
  br label %29

29:                                               ; preds = %28, %3
  %30 = load ptr, ptr %5, align 8, !tbaa !10
  %31 = load ptr, ptr %6, align 8, !tbaa !10
  %32 = load ptr, ptr %7, align 8, !tbaa !245
  %33 = call noundef ptr @_ZN7rocksdb22GetVarint32PtrFallbackEPKcS1_Pj(ptr noundef %30, ptr noundef %31, ptr noundef %32)
  store ptr %33, ptr %4, align 8
  br label %34

34:                                               ; preds = %29, %26
  %35 = load ptr, ptr %4, align 8
  ret ptr %35

36:                                               ; preds = %26
  unreachable
}

; Function Attrs: mustprogress nounwind uwtable
define linkonce_odr noundef i64 @_ZNK7rocksdb5Slice4sizeEv(ptr noundef nonnull align 8 dereferenceable(16) %0) #3 comdat align 2 {
  %2 = alloca ptr, align 8
  store ptr %0, ptr %2, align 8, !tbaa !13
  %3 = load ptr, ptr %2, align 8
  %4 = getelementptr inbounds nuw %"class.rocksdb::Slice", ptr %3, i32 0, i32 1
  %5 = load i64, ptr %4, align 8, !tbaa !17
  ret i64 %5
}

; Function Attrs: mustprogress nounwind uwtable
define linkonce_odr noundef ptr @_ZNK7rocksdb5Slice4dataEv(ptr noundef nonnull align 8 dereferenceable(16) %0) #3 comdat align 2 {
  %2 = alloca ptr, align 8
  store ptr %0, ptr %2, align 8, !tbaa !13
  %3 = load ptr, ptr %2, align 8
  %4 = getelementptr inbounds nuw %"class.rocksdb::Slice", ptr %3, i32 0, i32 0
  %5 = load ptr, ptr %4, align 8, !tbaa !15
  ret ptr %5
}

; Function Attrs: inlinehint mustprogress uwtable
define linkonce_odr noundef zeroext i1 @_ZN7rocksdb11GetVarint32EPNS_5SliceEPj(ptr noundef %0, ptr noundef %1) #7 comdat {
  %3 = alloca i1, align 1
  %4 = alloca ptr, align 8
  %5 = alloca ptr, align 8
  %6 = alloca ptr, align 8
  %7 = alloca ptr, align 8
  %8 = alloca ptr, align 8
  %9 = alloca i32, align 4
  %10 = alloca %"class.rocksdb::Slice", align 8
  store ptr %0, ptr %4, align 8, !tbaa !13
  store ptr %1, ptr %5, align 8, !tbaa !245
  call void @llvm.lifetime.start.p0(i64 8, ptr %6) #4
  %11 = load ptr, ptr %4, align 8, !tbaa !13
  %12 = call noundef ptr @_ZNK7rocksdb5Slice4dataEv(ptr noundef nonnull align 8 dereferenceable(16) %11)
  store ptr %12, ptr %6, align 8, !tbaa !10
  call void @llvm.lifetime.start.p0(i64 8, ptr %7) #4
  %13 = load ptr, ptr %6, align 8, !tbaa !10
  %14 = load ptr, ptr %4, align 8, !tbaa !13
  %15 = call noundef i64 @_ZNK7rocksdb5Slice4sizeEv(ptr noundef nonnull align 8 dereferenceable(16) %14)
  %16 = getelementptr inbounds nuw i8, ptr %13, i64 %15
  store ptr %16, ptr %7, align 8, !tbaa !10
  call void @llvm.lifetime.start.p0(i64 8, ptr %8) #4
  %17 = load ptr, ptr %6, align 8, !tbaa !10
  %18 = load ptr, ptr %7, align 8, !tbaa !10
  %19 = load ptr, ptr %5, align 8, !tbaa !245
  %20 = call noundef ptr @_ZN7rocksdb14GetVarint32PtrEPKcS1_Pj(ptr noundef %17, ptr noundef %18, ptr noundef %19)
  store ptr %20, ptr %8, align 8, !tbaa !10
  %21 = load ptr, ptr %8, align 8, !tbaa !10
  %22 = icmp eq ptr %21, null
  br i1 %22, label %23, label %24

23:                                               ; preds = %2
  store i1 false, ptr %3, align 1
  store i32 1, ptr %9, align 4
  br label %32

24:                                               ; preds = %2
  call void @llvm.lifetime.start.p0(i64 16, ptr %10) #4
  %25 = load ptr, ptr %8, align 8, !tbaa !10
  %26 = load ptr, ptr %7, align 8, !tbaa !10
  %27 = load ptr, ptr %8, align 8, !tbaa !10
  %28 = ptrtoint ptr %26 to i64
  %29 = ptrtoint ptr %27 to i64
  %30 = sub i64 %28, %29
  call void @_ZN7rocksdb5SliceC2EPKcm(ptr noundef nonnull align 8 dereferenceable(16) %10, ptr noundef %25, i64 noundef %30)
  %31 = load ptr, ptr %4, align 8, !tbaa !13
  call void @llvm.memcpy.p0.p0.i64(ptr align 8 %31, ptr align 8 %10, i64 16, i1 false), !tbaa.struct !54
  call void @llvm.lifetime.end.p0(i64 16, ptr %10) #4
  store i1 true, ptr %3, align 1
  store i32 1, ptr %9, align 4
  br label %32

32:                                               ; preds = %24, %23
  call void @llvm.lifetime.end.p0(i64 8, ptr %8) #4
  call void @llvm.lifetime.end.p0(i64 8, ptr %7) #4
  call void @llvm.lifetime.end.p0(i64 8, ptr %6) #4
  %33 = load i1, ptr %3, align 1
  ret i1 %33
}

; Function Attrs: mustprogress uwtable
define noundef zeroext i1 @_ZN7rocksdb11VersionEdit8GetLevelEPNS_5SliceEPiPPKc(ptr noundef nonnull align 8 dereferenceable(504) %0, ptr noundef %1, ptr noundef %2, ptr noundef %3) #5 align 2 {
  %5 = alloca i1, align 1
  %6 = alloca ptr, align 8
  %7 = alloca ptr, align 8
  %8 = alloca ptr, align 8
  %9 = alloca ptr, align 8
  %10 = alloca i32, align 4
  %11 = alloca i32, align 4
  store ptr %0, ptr %6, align 8, !tbaa !105
  store ptr %1, ptr %7, align 8, !tbaa !13
  store ptr %2, ptr %8, align 8, !tbaa !245
  store ptr %3, ptr %9, align 8, !tbaa !247
  %12 = load ptr, ptr %6, align 8
  call void @llvm.lifetime.start.p0(i64 4, ptr %10) #4
  store i32 0, ptr %10, align 4, !tbaa !204
  %13 = load ptr, ptr %7, align 8, !tbaa !13
  %14 = call noundef zeroext i1 @_ZN7rocksdb11GetVarint32EPNS_5SliceEPj(ptr noundef %13, ptr noundef %10)
  br i1 %14, label %15, label %28

15:                                               ; preds = %4
  %16 = load i32, ptr %10, align 4, !tbaa !204
  %17 = load ptr, ptr %8, align 8, !tbaa !245
  store i32 %16, ptr %17, align 4, !tbaa !204
  %18 = getelementptr inbounds nuw %"class.rocksdb::VersionEdit", ptr %12, i32 0, i32 0
  %19 = load i32, ptr %18, align 8, !tbaa !107
  %20 = load ptr, ptr %8, align 8, !tbaa !245
  %21 = load i32, ptr %20, align 4, !tbaa !204
  %22 = icmp slt i32 %19, %21
  br i1 %22, label %23, label %27

23:                                               ; preds = %15
  %24 = load ptr, ptr %8, align 8, !tbaa !245
  %25 = load i32, ptr %24, align 4, !tbaa !204
  %26 = getelementptr inbounds nuw %"class.rocksdb::VersionEdit", ptr %12, i32 0, i32 0
  store i32 %25, ptr %26, align 8, !tbaa !107
  br label %27

27:                                               ; preds = %23, %15
  store i1 true, ptr %5, align 1
  store i32 1, ptr %11, align 4
  br label %29

28:                                               ; preds = %4
  store i1 false, ptr %5, align 1
  store i32 1, ptr %11, align 4
  br label %29

29:                                               ; preds = %28, %27
  call void @llvm.lifetime.end.p0(i64 4, ptr %10) #4
  %30 = load i1, ptr %5, align 1
  ret i1 %30
}