; Function Attrs: mustprogress uwtable
define noundef zeroext i1 @_ZN7rocksdb11VersionEdit8GetLevelEPNS_5SliceEPiPPKc(ptr noundef nonnull align 8 captures(none) dereferenceable(504) %0, ptr noundef captures(none) %1, ptr noundef writeonly captures(none) %2, ptr noundef readnone captures(none) %3) local_unnamed_addr #5 align 2 {
  %5 = alloca i32, align 4
  call void @llvm.lifetime.start.p0(i64 4, ptr nonnull %5) #27
  store i32 0, ptr %5, align 4, !tbaa !202
  %6 = load ptr, ptr %1, align 8, !tbaa !24
  %7 = getelementptr inbounds nuw i8, ptr %1, i64 8
  %8 = load i64, ptr %7, align 8, !tbaa !47
  %9 = getelementptr inbounds nuw i8, ptr %6, i64 %8
  %.not.i = icmp eq i64 %8, 0
  br i1 %.not.i, label %_ZN7rocksdb14GetVarint32PtrEPKcS1_Pj.exit.i, label %10

10:                                               ; preds = %4
  %11 = load i8, ptr %6, align 1, !tbaa !17
  %12 = icmp sgt i8 %11, -1
  br i1 %12, label %_ZN7rocksdb14GetVarint32PtrEPKcS1_Pj.exit.thread.i, label %_ZN7rocksdb14GetVarint32PtrEPKcS1_Pj.exit.i

_ZN7rocksdb14GetVarint32PtrEPKcS1_Pj.exit.thread.i: ; preds = %10
  %13 = zext nneg i8 %11 to i32
  %14 = getelementptr inbounds nuw i8, ptr %6, i64 1
  br label %16

_ZN7rocksdb14GetVarint32PtrEPKcS1_Pj.exit.i:      ; preds = %10, %4
  %15 = call noundef ptr @_ZN7rocksdb22GetVarint32PtrFallbackEPKcS1_Pj(ptr noundef %6, ptr noundef %9, ptr noundef nonnull %5)
  %.not15.i = icmp eq ptr %15, null
  br i1 %.not15.i, label %_ZN7rocksdb11GetVarint32EPNS_5SliceEPj.exit, label %_ZN7rocksdb14GetVarint32PtrEPKcS1_Pj.exit.i._crit_edge

_ZN7rocksdb14GetVarint32PtrEPKcS1_Pj.exit.i._crit_edge: ; preds = %_ZN7rocksdb14GetVarint32PtrEPKcS1_Pj.exit.i
  %.pre = load i32, ptr %5, align 4, !tbaa !202
  br label %16

16:                                               ; preds = %_ZN7rocksdb14GetVarint32PtrEPKcS1_Pj.exit.i._crit_edge, %_ZN7rocksdb14GetVarint32PtrEPKcS1_Pj.exit.thread.i
  %17 = phi i32 [ %13, %_ZN7rocksdb14GetVarint32PtrEPKcS1_Pj.exit.thread.i ], [ %.pre, %_ZN7rocksdb14GetVarint32PtrEPKcS1_Pj.exit.i._crit_edge ]
  %.1.i14.i = phi ptr [ %14, %_ZN7rocksdb14GetVarint32PtrEPKcS1_Pj.exit.thread.i ], [ %15, %_ZN7rocksdb14GetVarint32PtrEPKcS1_Pj.exit.i._crit_edge ]
  %18 = ptrtoint ptr %9 to i64
  %19 = ptrtoint ptr %.1.i14.i to i64
  %20 = sub i64 %18, %19
  store ptr %.1.i14.i, ptr %1, align 8, !tbaa !25
  store i64 %20, ptr %7, align 8, !tbaa !26
  store i32 %17, ptr %2, align 4, !tbaa !202
  %21 = load i32, ptr %0, align 8, !tbaa !125
  %22 = icmp slt i32 %21, %17
  br i1 %22, label %23, label %_ZN7rocksdb11GetVarint32EPNS_5SliceEPj.exit

23:                                               ; preds = %16
  store i32 %17, ptr %0, align 8, !tbaa !125
  br label %_ZN7rocksdb11GetVarint32EPNS_5SliceEPj.exit

_ZN7rocksdb11GetVarint32EPNS_5SliceEPj.exit:      ; preds = %_ZN7rocksdb14GetVarint32PtrEPKcS1_Pj.exit.i, %16, %23
  %24 = phi i1 [ true, %16 ], [ true, %23 ], [ false, %_ZN7rocksdb14GetVarint32PtrEPKcS1_Pj.exit.i ]
  call void @llvm.lifetime.end.p0(i64 4, ptr nonnull %5) #27
  ret i1 %24
}